; Function Attrs: mustprogress nofree norecurse nosync nounwind willreturn memory(none) uwtable
define hidden noundef zeroext i1 @SDL_IsJoystickAmazonLunaController(i16 noundef zeroext %0, i16 noundef zeroext %1) local_unnamed_addr #4 {
  %3 = icmp eq i16 %0, 6473
  %4 = icmp eq i16 %1, 1049
  %or.cond = and i1 %3, %4
  br i1 %or.cond, label %8, label %5

5:                                                ; preds = %2
  %6 = icmp eq i16 %0, 369
  %7 = and i1 %6, %4
  br label %8

8:                                                ; preds = %2, %5
  %9 = phi i1 [ %7, %5 ], [ true, %2 ]
  ret i1 %9
}